target datalayout = "e-m:e-p270:32:32-p271:32:32-p272:64:64-i64:64-i128:128-f80:128-n8:16:32:64-S128"
target triple = "x86_64-pc-linux-gnu"

%union.pthread_mutex_t = type { %struct.__pthread_mutex_s }
%struct.__pthread_mutex_s = type { i32, i32, i32, i32, i32, i16, i16, %struct.__pthread_internal_list }
%struct.__pthread_internal_list = type { ptr, ptr }
%struct.tMPI_Atomic = type { i32, [60 x i8] }
%struct.tMPI_Thread_once_t = type { %struct.tMPI_Atomic }

@_ZL9once_init = internal global %union.pthread_mutex_t zeroinitializer, align 8

; Function Attrs: mustprogress uwtable
define noundef i32 @_Z16tMPI_Thread_onceP18tMPI_Thread_once_tPFvvE(ptr noundef %0, ptr noundef %1) #2 {
  %3 = alloca i32, align 4
  %4 = alloca ptr, align 8
  %5 = alloca ptr, align 8
  %6 = alloca i32, align 4
  store ptr %0, ptr %4, align 8
  store ptr %1, ptr %5, align 8
  %7 = load ptr, ptr %4, align 8
  %8 = icmp ne ptr %7, null
  br i1 %8, label %9, label %12

9:                                                ; preds = %2
  %10 = load ptr, ptr %5, align 8
  %11 = icmp ne ptr %10, null
  br i1 %11, label %13, label %12

12:                                               ; preds = %9, %2
  store i32 22, ptr %3, align 4
  br label %33

13:                                               ; preds = %9
  %14 = call i32 @pthread_mutex_lock(ptr noundef @_ZL9once_init) #8
  store i32 %14, ptr %6, align 4
  %15 = load i32, ptr %6, align 4
  %16 = icmp ne i32 %15, 0
  br i1 %16, label %17, label %19

17:                                               ; preds = %13
  %18 = load i32, ptr %6, align 4
  store i32 %18, ptr %3, align 4
  br label %33

19:                                               ; preds = %13
  %20 = load ptr, ptr %4, align 8
  %21 = getelementptr inbounds %struct.tMPI_Thread_once_t, ptr %20, i32 0, i32 0
  %22 = getelementptr inbounds %struct.tMPI_Atomic, ptr %21, i32 0, i32 0
  %23 = load i32, ptr %22, align 4
  %24 = icmp eq i32 %23, 0
  br i1 %24, label %25, label %30

25:                                               ; preds = %19
  %26 = load ptr, ptr %5, align 8
  call void %26()
  %27 = load ptr, ptr %4, align 8
  %28 = getelementptr inbounds %struct.tMPI_Thread_once_t, ptr %27, i32 0, i32 0
  %29 = getelementptr inbounds %struct.tMPI_Atomic, ptr %28, i32 0, i32 0
  store i32 1, ptr %29, align 4
  br label %30

30:                                               ; preds = %25, %19
  %31 = call i32 @pthread_mutex_unlock(ptr noundef @_ZL9once_init) #8
  store i32 %31, ptr %6, align 4
  %32 = load i32, ptr %6, align 4
  store i32 %32, ptr %3, align 4
  br label %33

33:                                               ; preds = %30, %17, %12
  %34 = load i32, ptr %3, align 4
  ret i32 %34
}