; Function Attrs: mustprogress uwtable
define noundef i32 @_Z16tMPI_Thread_onceP18tMPI_Thread_once_tPFvvE(ptr noundef %0, ptr noundef readonly %1) local_unnamed_addr #4 {
  %3 = icmp ne ptr %0, null
  %4 = icmp ne ptr %1, null
  %or.cond = and i1 %3, %4
  br i1 %or.cond, label %5, label %13

5:                                                ; preds = %2
  %6 = tail call i32 @pthread_mutex_lock(ptr noundef nonnull @_ZL9once_init) #13
  %.not = icmp eq i32 %6, 0
  br i1 %.not, label %7, label %13

7:                                                ; preds = %5
  %8 = load i32, ptr %0, align 4
  %9 = icmp eq i32 %8, 0
  br i1 %9, label %10, label %11

10:                                               ; preds = %7
  tail call void %1()
  store i32 1, ptr %0, align 4
  br label %11

11:                                               ; preds = %10, %7
  %12 = tail call i32 @pthread_mutex_unlock(ptr noundef nonnull @_ZL9once_init) #13
  br label %13

13:                                               ; preds = %5, %2, %11
  %.0 = phi i32 [ %12, %11 ], [ 22, %2 ], [ %6, %5 ]
  ret i32 %.0
}